; ModuleID = '53/856.c'
source_filename = "53/856.c"
target datalayout = "e-m:e-p270:32:32-p271:32:32-p272:64:64-i64:64-f80:128-n8:16:32:64-S128"
target triple = "x86_64-pc-linux-gnu"

@.str = private unnamed_addr constant [3 x i8] c"%d\00", align 1
@.str.1 = private unnamed_addr constant [4 x i8] c",%d\00", align 1

; Function Attrs: noinline nounwind uwtable
define dso_local i32 @main() #0 {
  %1 = alloca i32, align 4
  %2 = alloca i32, align 4
  %3 = alloca i32, align 4
  %4 = alloca i32, align 4
  %5 = alloca [300 x i32], align 16
  %6 = alloca [300 x i32], align 16
  %7 = alloca i32, align 4
  %8 = alloca i32, align 4
  store i32 0, i32* %1, align 4
  store i32 0, i32* %4, align 4
  %9 = call i32 (i8*, ...) @__isoc99_scanf(i8* getelementptr inbounds ([3 x i8], [3 x i8]* @.str, i64 0, i64 0), i32* %2)
  %10 = bitcast [300 x i32]* %6 to i8*
  call void @llvm.memset.p0i8.i64(i8* align 16 %10, i8 0, i64 1200, i1 false)
  store i32 0, i32* %8, align 4
  store i32 0, i32* %7, align 4
  br label %11

11:                                               ; preds = %20, %0
  %12 = load i32, i32* %7, align 4
  %13 = load i32, i32* %2, align 4
  %14 = icmp slt i32 %12, %13
  br i1 %14, label %15, label %23

15:                                               ; preds = %11
  %16 = load i32, i32* %7, align 4
  %17 = sext i32 %16 to i64
  %18 = getelementptr inbounds [300 x i32], [300 x i32]* %5, i64 0, i64 %17
  %19 = call i32 (i8*, ...) @__isoc99_scanf(i8* getelementptr inbounds ([3 x i8], [3 x i8]* @.str, i64 0, i64 0), i32* %18)
  br label %20

20:                                               ; preds = %15
  %21 = load i32, i32* %7, align 4
  %22 = add nsw i32 %21, 1
  store i32 %22, i32* %7, align 4
  br label %11

23:                                               ; preds = %11
  %24 = getelementptr inbounds [300 x i32], [300 x i32]* %5, i64 0, i64 0
  %25 = load i32, i32* %24, align 16
  %26 = call i32 (i8*, ...) @printf(i8* getelementptr inbounds ([3 x i8], [3 x i8]* @.str, i64 0, i64 0), i32 %25)
  store i32 0, i32* %7, align 4
  br label %27

27:                                               ; preds = %63, %23
  %28 = load i32, i32* %7, align 4
  %29 = load i32, i32* %2, align 4
  %30 = icmp slt i32 %28, %29
  br i1 %30, label %31, label %66

31:                                               ; preds = %27
  store i32 0, i32* %8, align 4
  br label %32

32:                                               ; preds = %50, %31
  %33 = load i32, i32* %8, align 4
  %34 = load i32, i32* %7, align 4
  %35 = icmp slt i32 %33, %34
  br i1 %35, label %36, label %53

36:                                               ; preds = %32
  store i32 0, i32* %3, align 4
  %37 = load i32, i32* %7, align 4
  %38 = sext i32 %37 to i64
  %39 = getelementptr inbounds [300 x i32], [300 x i32]* %5, i64 0, i64 %38
  %40 = load i32, i32* %39, align 4
  %41 = load i32, i32* %8, align 4
  %42 = sext i32 %41 to i64
  %43 = getelementptr inbounds [300 x i32], [300 x i32]* %5, i64 0, i64 %42
  %44 = load i32, i32* %43, align 4
  %45 = icmp eq i32 %40, %44
  br i1 %45, label %46, label %49

46:                                               ; preds = %36
  %47 = load i32, i32* %3, align 4
  %48 = add nsw i32 %47, 1
  store i32 %48, i32* %3, align 4
  br label %53

49:                                               ; preds = %36
  br label %50

50:                                               ; preds = %49
  %51 = load i32, i32* %8, align 4
  %52 = add nsw i32 %51, 1
  store i32 %52, i32* %8, align 4
  br label %32

53:                                               ; preds = %46, %32
  %54 = load i32, i32* %3, align 4
  %55 = icmp eq i32 %54, 0
  br i1 %55, label %56, label %62

56:                                               ; preds = %53
  %57 = load i32, i32* %7, align 4
  %58 = sext i32 %57 to i64
  %59 = getelementptr inbounds [300 x i32], [300 x i32]* %5, i64 0, i64 %58
  %60 = load i32, i32* %59, align 4
  %61 = call i32 (i8*, ...) @printf(i8* getelementptr inbounds ([4 x i8], [4 x i8]* @.str.1, i64 0, i64 0), i32 %60)
  br label %62

62:                                               ; preds = %56, %53
  br label %63

63:                                               ; preds = %62
  %64 = load i32, i32* %7, align 4
  %65 = add nsw i32 %64, 1
  store i32 %65, i32* %7, align 4
  br label %27

66:                                               ; preds = %27
  ret i32 0
}

declare dso_local i32 @__isoc99_scanf(i8*, ...) #1

; Function Attrs: argmemonly nounwind willreturn
declare void @llvm.memset.p0i8.i64(i8* nocapture writeonly, i8, i64, i1 immarg) #2

declare dso_local i32 @printf(i8*, ...) #1


!llvm.module.flags = !{!0}
!llvm.ident = !{!1}

!0 = !{i32 1, !"wchar_size", i32 4}
!1 = !{!"clang version 10.0.0-4ubuntu1 "}
